; Function Attrs: nounwind uwtable
define dso_local void @smismemberCommand(ptr noundef %0) local_unnamed_addr #0 {
  %2 = getelementptr inbounds nuw i8, ptr %0, i64 32
  %3 = load ptr, ptr %2, align 8, !tbaa !62
  %4 = getelementptr inbounds nuw i8, ptr %0, i64 96
  %5 = load ptr, ptr %4, align 8, !tbaa !72
  %6 = getelementptr inbounds nuw i8, ptr %5, i64 8
  %7 = load ptr, ptr %6, align 8, !tbaa !73
  %8 = tail call ptr @lookupKeyRead(ptr noundef %3, ptr noundef %7) #10
  %.not = icmp eq ptr %8, null
  br i1 %.not, label %11, label %9

9:                                                ; preds = %1
  %10 = tail call i32 @checkType(ptr noundef nonnull %0, ptr noundef nonnull %8, i32 noundef 2) #10
  %.not16 = icmp eq i32 %10, 0
  br i1 %.not16, label %11, label %.loopexit

11:                                               ; preds = %9, %1
  %12 = getelementptr inbounds nuw i8, ptr %0, i64 88
  %13 = load i32, ptr %12, align 8, !tbaa !74
  %14 = add nsw i32 %13, -2
  %15 = sext i32 %14 to i64
  tail call void @addReplyArrayLen(ptr noundef nonnull %0, i64 noundef %15) #10
  %16 = load i32, ptr %12, align 8, !tbaa !74
  %17 = icmp sgt i32 %16, 2
  br i1 %17, label %.lr.ph, label %.loopexit

.lr.ph:                                           ; preds = %11
  br i1 %.not, label %.lr.ph.split.us, label %.lr.ph.split

.lr.ph.split.us:                                  ; preds = %.lr.ph, %.lr.ph.split.us
  %.018.us = phi i32 [ %19, %.lr.ph.split.us ], [ 2, %.lr.ph ]
  %18 = load ptr, ptr getelementptr inbounds nuw (i8, ptr @shared, i64 24), align 8, !tbaa !79
  tail call void @addReply(ptr noundef nonnull %0, ptr noundef %18) #10
  %19 = add nuw nsw i32 %.018.us, 1
  %20 = load i32, ptr %12, align 8, !tbaa !74
  %21 = icmp slt i32 %19, %20
  br i1 %21, label %.lr.ph.split.us, label %.loopexit, !llvm.loop !83

.lr.ph.split:                                     ; preds = %.lr.ph, %setTypeIsMember.exit
  %indvars.iv = phi i64 [ %indvars.iv.next, %setTypeIsMember.exit ], [ 2, %.lr.ph ]
  %22 = load ptr, ptr %4, align 8, !tbaa !72
  %23 = getelementptr inbounds nuw ptr, ptr %22, i64 %indvars.iv
  %24 = load ptr, ptr %23, align 8, !tbaa !73
  %25 = getelementptr inbounds nuw i8, ptr %24, i64 8
  %26 = load ptr, ptr %25, align 8, !tbaa !38
  %27 = getelementptr inbounds i8, ptr %26, i64 -1
  %28 = load i8, ptr %27, align 1, !tbaa !54
  %29 = zext i8 %28 to i32
  %30 = and i32 %29, 7
  switch i32 %30, label %setTypeIsMember.exit [
    i32 0, label %31
    i32 1, label %34
    i32 2, label %38
    i32 3, label %42
    i32 4, label %46
  ]

31:                                               ; preds = %.lr.ph.split
  %32 = lshr i32 %29, 3
  %33 = zext nneg i32 %32 to i64
  br label %setTypeIsMember.exit

34:                                               ; preds = %.lr.ph.split
  %35 = getelementptr inbounds i8, ptr %26, i64 -3
  %36 = load i8, ptr %35, align 1, !tbaa !54
  %37 = zext i8 %36 to i64
  br label %setTypeIsMember.exit

38:                                               ; preds = %.lr.ph.split
  %39 = getelementptr inbounds i8, ptr %26, i64 -5
  %40 = load i16, ptr %39, align 1, !tbaa !55
  %41 = zext i16 %40 to i64
  br label %setTypeIsMember.exit

42:                                               ; preds = %.lr.ph.split
  %43 = getelementptr inbounds i8, ptr %26, i64 -9
  %44 = load i32, ptr %43, align 1, !tbaa !57
  %45 = zext i32 %44 to i64
  br label %setTypeIsMember.exit

46:                                               ; preds = %.lr.ph.split
  %47 = getelementptr inbounds i8, ptr %26, i64 -17
  %48 = load i64, ptr %47, align 1, !tbaa !50
  br label %setTypeIsMember.exit

setTypeIsMember.exit:                             ; preds = %.lr.ph.split, %31, %34, %38, %42, %46
  %.0.i.i = phi i64 [ %48, %46 ], [ %45, %42 ], [ %41, %38 ], [ %37, %34 ], [ %33, %31 ], [ 0, %.lr.ph.split ]
  %49 = tail call range(i32 0, 256) i32 @setTypeIsMemberAux(ptr noundef nonnull readonly %8, ptr noundef nonnull %26, i64 noundef %.0.i.i, i64 noundef 0, i32 noundef 1)
  %.not17 = icmp eq i32 %49, 0
  %50 = load ptr, ptr getelementptr inbounds nuw (i8, ptr @shared, i64 32), align 8
  %51 = load ptr, ptr getelementptr inbounds nuw (i8, ptr @shared, i64 24), align 8
  %.sink = select i1 %.not17, ptr %51, ptr %50
  tail call void @addReply(ptr noundef nonnull %0, ptr noundef %.sink) #10
  %indvars.iv.next = add nuw nsw i64 %indvars.iv, 1
  %52 = load i32, ptr %12, align 8, !tbaa !74
  %53 = sext i32 %52 to i64
  %54 = icmp slt i64 %indvars.iv.next, %53
  br i1 %54, label %.lr.ph.split, label %.loopexit, !llvm.loop !83

.loopexit:                                        ; preds = %setTypeIsMember.exit, %.lr.ph.split.us, %11, %9
  ret void
}